Certificate:
    Data:
        Version: 3 (0x2)
        Serial Number: 1 (0x1)
        Signature Algorithm: sha1WithRSAEncryption
        Issuer: C=CN, ST=beijing, L=bj, O=baidu, OU=bpit, CN=172.22.245.101/emailAddress=zhouweiping@baidu.com
        Validity
            Not Before: Aug 20 06:27:15 2013 GMT
            Not After : Aug 20 06:27:15 2014 GMT
        Subject: C=CN, ST=beijing, O=baidu, OU=bpit, CN=172.22.245.101/emailAddress=zhouweiping@baidu.com
        Subject Public Key Info:
            Public Key Algorithm: rsaEncryption
            RSA Public Key: (1024 bit)
                Modulus (1024 bit):
                    00:b5:f6:25:19:1b:59:d0:ea:e9:67:b1:0d:33:0f:
                    17:6a:98:c8:30:f5:e1:e1:f3:63:0f:bf:d7:d6:9b:
                    c7:0c:29:78:28:c8:7b:b6:4b:68:e9:66:e0:18:c4:
                    2e:d9:d5:8c:b0:12:e5:df:b4:0e:44:93:b7:f8:a5:
                    31:e9:f0:31:31:9f:2d:e2:38:29:92:e4:83:6f:22:
                    0a:b8:36:19:14:28:07:27:16:d4:8f:8a:78:17:31:
                    2d:d2:dd:99:42:54:c4:90:35:56:f6:7f:44:6e:6e:
                    70:63:10:aa:a9:24:47:84:b7:11:84:dc:20:74:ec:
                    f3:1c:e0:6b:65:20:49:f8:3f
                Exponent: 65537 (0x10001)
        X509v3 extensions:
            X509v3 Basic Constraints: 
                CA:FALSE
            Netscape Comment: 
                OpenSSL Generated Certificate
            X509v3 Subject Key Identifier: 
                A7:2C:2D:6D:98:6A:04:A9:27:F5:5B:D0:70:23:20:85:45:DE:4F:E9
            X509v3 Authority Key Identifier: 
                keyid:A7:27:78:33:3E:40:D8:DF:9B:97:AE:34:8E:CF:4A:30:BD:3B:12:D8

    Signature Algorithm: sha1WithRSAEncryption
        35:f7:c0:46:ed:56:7e:fb:15:de:4b:95:d0:b4:93:fc:f5:fe:
        ac:1a:96:6a:de:1d:8a:2e:bb:f7:2e:9c:98:a4:5b:a7:1d:c2:
        3b:43:8f:70:b5:63:5b:a2:56:c4:36:17:c9:6a:e1:1a:6e:16:
        3e:29:57:dc:1f:80:e1:c5:84:68:69:2f:85:b8:2f:c2:82:be:
        c6:31:be:58:46:45:19:01:75:e7:33:09:48:df:c1:99:b3:f1:
        38:00:3b:7d:92:4a:7e:e1:00:e7:3e:cd:1f:90:23:b6:32:5f:
        f8:cc:03:73:18:14:78:73:cb:9c:22:05:cb:8e:5a:14:e5:3c:
        5b:e7
-----BEGIN CERTIFICATE-----
MIIC+TCCAmKgAwIBAgIBATANBgkqhkiG9w0BAQUFADCBijELMAkGA1UEBhMCQ04x
EDAOBgNVBAgTB2JlaWppbmcxCzAJBgNVBAcTAmJqMQ4wDAYDVQQKEwViYWlkdTEN
MAsGA1UECxMEYnBpdDEXMBUGA1UEAxMOMTcyLjIyLjI0NS4xMDExJDAiBgkqhkiG
9w0BCQEWFXpob3V3ZWlwaW5nQGJhaWR1LmNvbTAeFw0xMzA4MjAwNjI3MTVaFw0x
NDA4MjAwNjI3MTVaMH0xCzAJBgNVBAYTAkNOMRAwDgYDVQQIEwdiZWlqaW5nMQ4w
DAYDVQQKEwViYWlkdTENMAsGA1UECxMEYnBpdDEXMBUGA1UEAxMOMTcyLjIyLjI0
NS4xMDExJDAiBgkqhkiG9w0BCQEWFXpob3V3ZWlwaW5nQGJhaWR1LmNvbTCBnzAN
BgkqhkiG9w0BAQEFAAOBjQAwgYkCgYEAtfYlGRtZ0OrpZ7ENMw8XapjIMPXh4fNj
D7/X1pvHDCl4KMh7tkto6WbgGMQu2dWMsBLl37QORJO3+KUx6fAxMZ8t4jgpkuSD
byIKuDYZFCgHJxbUj4p4FzEt0t2ZQlTEkDVW9n9Ebm5wYxCqqSRHhLcRhNwgdOzz
HOBrZSBJ+D8CAwEAAaN7MHkwCQYDVR0TBAIwADAsBglghkgBhvhCAQ0EHxYdT3Bl
blNTTCBHZW5lcmF0ZWQgQ2VydGlmaWNhdGUwHQYDVR0OBBYEFKcsLW2YagSpJ/Vb
0HAjIIVF3k/pMB8GA1UdIwQYMBaAFKcneDM+QNjfm5euNI7PSjC9OxLYMA0GCSqG
SIb3DQEBBQUAA4GBADX3wEbtVn77Fd5LldC0k/z1/qwalmreHYouu/cunJikW6cd
wjtDj3C1Y1uiVsQ2F8lq4RpuFj4pV9wfgOHFhGhpL4W4L8KCvsYxvlhGRRkBdecz
CUjfwZmz8TgAO32SSn7hAOc+zR+QI7YyX/jMA3MYFHhzy5wiBcuOWhTlPFvn
-----END CERTIFICATE-----
