Certificate:
    Data:
        Version: 3 (0x2)
        Serial Number: 1 (0x1)
        Signature Algorithm: sha1WithRSAEncryption
        Issuer: C=CN, ST=beijing, L=bj, O=baidu, OU=baidu, CN=173.255.235.8/emailAddress=zhouweiping@baidu.com
        Validity
            Not Before: Aug 20 04:24:12 2013 GMT
            Not After : Aug 20 04:24:12 2014 GMT
        Subject: C=CN, ST=beijing, O=baidu, OU=baidu, CN=173.255.235.8/emailAddress=zhouweiping@baidu.com
        Subject Public Key Info:
            Public Key Algorithm: rsaEncryption
            RSA Public Key: (1024 bit)
                Modulus (1024 bit):
                    00:b6:30:be:38:9a:b3:6e:ce:06:2d:35:37:17:9a:
                    92:75:b9:1b:a4:9a:2d:0a:95:4f:34:c3:3c:a1:ce:
                    8c:76:a0:6b:19:1f:c3:2b:10:06:6d:4f:5c:8b:7c:
                    f7:ef:a2:4d:4e:ae:a6:b9:82:62:37:05:15:a9:b5:
                    b8:b2:38:cc:b0:ae:31:fa:bf:e0:b2:c5:33:6f:28:
                    18:49:94:cf:8a:90:3b:a3:9f:c3:3c:80:10:00:07:
                    04:ca:48:41:ce:1f:74:1d:a2:5c:53:f3:9d:12:1f:
                    0c:6f:01:34:99:bb:38:1a:0a:24:d6:6e:a5:88:2f:
                    b8:77:8e:68:41:76:06:4f:43
                Exponent: 65537 (0x10001)
        X509v3 extensions:
            X509v3 Basic Constraints: 
                CA:FALSE
            Netscape Comment: 
                OpenSSL Generated Certificate
            X509v3 Subject Key Identifier: 
                B6:E6:2D:73:A3:C7:F0:CC:84:9D:11:42:D1:7D:65:EC:14:61:22:48
            X509v3 Authority Key Identifier: 
                keyid:8B:ED:9C:63:11:40:0D:C3:C1:54:40:4A:2B:21:0B:7B:F6:51:FF:97

    Signature Algorithm: sha1WithRSAEncryption
        76:70:59:e9:5f:80:c8:59:c0:ae:3a:ba:b1:e4:29:04:e3:b7:
        97:f4:14:f2:b7:90:ce:2a:03:82:02:1f:13:f0:89:d4:00:81:
        8d:1f:d4:9e:59:72:bf:ee:5e:58:89:38:51:6b:da:f9:2f:ab:
        71:4c:7f:c7:9d:89:9c:d4:f1:3f:78:45:2f:57:4c:84:49:26:
        68:16:46:64:b8:80:85:9f:c2:b0:e7:2b:1e:e7:90:a5:3a:36:
        43:ac:af:e4:e9:09:23:27:1a:7d:5b:c7:a2:47:fa:ea:21:92:
        c9:05:ab:b2:de:d6:43:05:f3:d2:ec:1f:bb:b7:f4:94:fc:b1:
        dc:56
-----BEGIN CERTIFICATE-----
MIIC+TCCAmKgAwIBAgIBATANBgkqhkiG9w0BAQUFADCBijELMAkGA1UEBhMCQ04x
EDAOBgNVBAgTB2JlaWppbmcxCzAJBgNVBAcTAmJqMQ4wDAYDVQQKEwViYWlkdTEO
MAwGA1UECxMFYmFpZHUxFjAUBgNVBAMTDTE3My4yNTUuMjM1LjgxJDAiBgkqhkiG
9w0BCQEWFXpob3V3ZWlwaW5nQGJhaWR1LmNvbTAeFw0xMzA4MjAwNDI0MTJaFw0x
NDA4MjAwNDI0MTJaMH0xCzAJBgNVBAYTAkNOMRAwDgYDVQQIEwdiZWlqaW5nMQ4w
DAYDVQQKEwViYWlkdTEOMAwGA1UECxMFYmFpZHUxFjAUBgNVBAMTDTE3My4yNTUu
MjM1LjgxJDAiBgkqhkiG9w0BCQEWFXpob3V3ZWlwaW5nQGJhaWR1LmNvbTCBnzAN
BgkqhkiG9w0BAQEFAAOBjQAwgYkCgYEAtjC+OJqzbs4GLTU3F5qSdbkbpJotCpVP
NMM8oc6MdqBrGR/DKxAGbU9ci3z376JNTq6muYJiNwUVqbW4sjjMsK4x+r/gssUz
bygYSZTPipA7o5/DPIAQAAcEykhBzh90HaJcU/OdEh8MbwE0mbs4Ggok1m6liC+4
d45oQXYGT0MCAwEAAaN7MHkwCQYDVR0TBAIwADAsBglghkgBhvhCAQ0EHxYdT3Bl
blNTTCBHZW5lcmF0ZWQgQ2VydGlmaWNhdGUwHQYDVR0OBBYEFLbmLXOjx/DMhJ0R
QtF9ZewUYSJIMB8GA1UdIwQYMBaAFIvtnGMRQA3DwVRASishC3v2Uf+XMA0GCSqG
SIb3DQEBBQUAA4GBAHZwWelfgMhZwK46urHkKQTjt5f0FPK3kM4qA4ICHxPwidQA
gY0f1J5Zcr/uXliJOFFr2vkvq3FMf8ediZzU8T94RS9XTIRJJmgWRmS4gIWfwrDn
Kx7nkKU6NkOsr+TpCSMnGn1bx6JH+uohkskFq7Le1kMF89LsH7u39JT8sdxW
-----END CERTIFICATE-----
-----BEGIN RSA PRIVATE KEY-----
MIICWwIBAAKBgQC2ML44mrNuzgYtNTcXmpJ1uRukmi0KlU80wzyhzox2oGsZH8Mr
EAZtT1yLfPfvok1Orqa5gmI3BRWptbiyOMywrjH6v+CyxTNvKBhJlM+KkDujn8M8
gBAABwTKSEHOH3QdolxT850SHwxvATSZuzgaCiTWbqWIL7h3jmhBdgZPQwIDAQAB
AoGASh6OZKzbLsr2TFIH9bxWtTn3ewGWLWYM8SQ0eId1MZWVvITle5Fra/ELb1wJ
6h2XYdk/ztyyZDvXUlGxsB/XdaEqQGkInctgqauYpgb6crNJy4GFgANqPqZnTvOD
fWcF0439ZAejCke44e6mieDI9+7H/5U4ixma0oLjkNsEp3ECQQDrTV9UlK5nMshf
9WUcluoMpDyyOfEOeh83zi7fMiXPDn9M+gb0Mmme57blcAaq1cF/utzD/HLoZ9l7
0+nv3x9tAkEAxjdgrtNHD36sT1MsXt5CUva4TJBnh4hM/rQgXdeYFRDjQZOEz+DH
ZDXo1PXnH6SIb679F6NqQISF5fgk6uYLbwJAG2qEdQJt37BXEHczNMWQt7BbMhj2
MU2hXYs0guUA6sMxqfJn5QQKsm0lLk6DOFx3kz5egqdjbBjNilQCqeRBcQJAY2i6
kHNdnCPHfzETe7C0Sq951sxFX++3zbXA1c+eclI551V4sljlJxjyYHvDIld+JaT5
QbWvQBQ2oxNEUJp2+QJAZT2ZY/zVljfV5Pc2v7QKvcg6ICFSTjfc75qM/t9L2sNl
bNN/Rku+CdhVuSTcI+Iu0i38kOwtxniCYTwByen4Dg==
-----END RSA PRIVATE KEY-----
