Certificate:
    Data:
        Version: 3 (0x2)
        Serial Number: 1 (0x1)
        Signature Algorithm: sha1WithRSAEncryption
        Issuer: C=CN, ST=beijing, L=bj, O=DAIBI, OU=DAIBI, CN=daibi.org/emailAddress=eric.prototype@gmail.com
        Validity
            Not Before: Aug 20 09:50:04 2013 GMT
            Not After : Aug 20 09:50:04 2014 GMT
        Subject: C=CN, ST=beijing, O=DAIBI, OU=DAIBI, CN=daibi.org/emailAddress=eric.prototype@gmail.com
        Subject Public Key Info:
            Public Key Algorithm: rsaEncryption
            RSA Public Key: (1024 bit)
                Modulus (1024 bit):
                    00:a3:b6:66:c3:bc:e4:f6:c7:92:1d:73:3f:03:57:
                    f1:38:5d:41:dc:31:1e:41:8f:d7:4f:c7:22:7d:be:
                    25:27:de:c4:90:73:70:b3:01:25:b6:14:50:70:61:
                    60:3f:7f:de:87:3b:56:df:e7:79:67:d8:62:65:7d:
                    10:13:28:d8:d3:9b:15:f8:15:37:04:e6:4c:39:e9:
                    20:f2:e3:26:4d:63:65:4c:9e:a3:8c:49:03:b9:18:
                    14:67:91:de:89:f0:11:bb:0d:aa:f4:e5:bb:32:75:
                    8f:5a:43:23:f6:2d:66:3b:a3:48:18:bd:c3:08:49:
                    41:be:b3:8f:f9:98:74:5b:4b
                Exponent: 65537 (0x10001)
        X509v3 extensions:
            X509v3 Basic Constraints: 
                CA:FALSE
            Netscape Comment: 
                OpenSSL Generated Certificate
            X509v3 Subject Key Identifier: 
                DB:EB:DF:E4:95:A4:B7:7F:29:9D:3E:70:61:99:F0:69:64:BE:55:4C
            X509v3 Authority Key Identifier: 
                keyid:61:6C:2D:39:16:FB:AD:16:EA:CF:9F:8A:81:84:3E:3E:4A:2F:1C:54

    Signature Algorithm: sha1WithRSAEncryption
        43:12:87:5e:8a:58:45:46:8e:5c:86:e9:c4:36:c0:5b:f7:b6:
        19:1f:92:2d:53:ff:90:c9:04:6e:dd:de:d3:ae:bc:a9:39:39:
        ff:b3:cc:dd:f8:a4:68:6f:ad:8b:41:99:0a:b5:d3:86:7b:1f:
        7b:6d:54:32:a7:92:e7:07:bd:eb:4d:7c:c3:e1:8d:a3:c8:cd:
        bc:96:a2:0e:e8:44:87:93:cc:ba:e5:61:18:5b:1d:ea:e1:9f:
        cb:8a:44:18:57:b8:7a:02:cb:d1:72:9a:9a:dd:cb:dc:0e:52:
        0d:f2:c5:89:23:59:94:d2:f0:6f:26:0c:04:0b:16:65:dd:e7:
        02:98
-----BEGIN CERTIFICATE-----
MIIC9zCCAmCgAwIBAgIBATANBgkqhkiG9w0BAQUFADCBiTELMAkGA1UEBhMCQ04x
EDAOBgNVBAgTB2JlaWppbmcxCzAJBgNVBAcTAmJqMQ4wDAYDVQQKEwVEQUlCSTEO
MAwGA1UECxMFREFJQkkxEjAQBgNVBAMTCWRhaWJpLm9yZzEnMCUGCSqGSIb3DQEJ
ARYYZXJpYy5wcm90b3R5cGVAZ21haWwuY29tMB4XDTEzMDgyMDA5NTAwNFoXDTE0
MDgyMDA5NTAwNFowfDELMAkGA1UEBhMCQ04xEDAOBgNVBAgTB2JlaWppbmcxDjAM
BgNVBAoTBURBSUJJMQ4wDAYDVQQLEwVEQUlCSTESMBAGA1UEAxMJZGFpYmkub3Jn
MScwJQYJKoZIhvcNAQkBFhhlcmljLnByb3RvdHlwZUBnbWFpbC5jb20wgZ8wDQYJ
KoZIhvcNAQEBBQADgY0AMIGJAoGBAKO2ZsO85PbHkh1zPwNX8ThdQdwxHkGP10/H
In2+JSfexJBzcLMBJbYUUHBhYD9/3oc7Vt/neWfYYmV9EBMo2NObFfgVNwTmTDnp
IPLjJk1jZUyeo4xJA7kYFGeR3onwEbsNqvTluzJ1j1pDI/YtZjujSBi9wwhJQb6z
j/mYdFtLAgMBAAGjezB5MAkGA1UdEwQCMAAwLAYJYIZIAYb4QgENBB8WHU9wZW5T
U0wgR2VuZXJhdGVkIENlcnRpZmljYXRlMB0GA1UdDgQWBBTb69/klaS3fymdPnBh
mfBpZL5VTDAfBgNVHSMEGDAWgBRhbC05FvutFurPn4qBhD4+Si8cVDANBgkqhkiG
9w0BAQUFAAOBgQBDEodeilhFRo5chunENsBb97YZH5ItU/+QyQRu3d7TrrypOTn/
s8zd+KRob62LQZkKtdOGex97bVQyp5LnB73rTXzD4Y2jyM28lqIO6ESHk8y65WEY
Wx3q4Z/LikQYV7h6AsvRcpqa3cvcDlIN8sWJI1mU0vBvJgwECxZl3ecCmA==
-----END CERTIFICATE-----
-----BEGIN RSA PRIVATE KEY-----
MIICXgIBAAKBgQCjtmbDvOT2x5Idcz8DV/E4XUHcMR5Bj9dPxyJ9viUn3sSQc3Cz
ASW2FFBwYWA/f96HO1bf53ln2GJlfRATKNjTmxX4FTcE5kw56SDy4yZNY2VMnqOM
SQO5GBRnkd6J8BG7Dar05bsydY9aQyP2LWY7o0gYvcMISUG+s4/5mHRbSwIDAQAB
AoGBAI/0qFCeHUfTHWzAFjy+a+KAPpV8q3pDHbWNCYtAVDPG81mB6Su+aoa9Pi5T
seqkaezIBRBF3r+tyngrjKMMW/vt7IYnEFoyD8H9+NbOj1VGN2+lRm5ce0wiIt/5
IWc/7m56FUyWgF7ZBvMNCbsDhawpUpFjJe47/1qwwTWT5BfhAkEA1+GyLJ139ljr
tDlmw71AozO8u0JsO5hikPArfES8apr4Xx8uohK50Qx0x86CWJHWNF7R0uCu4kNa
T5+vZcbDFwJBAMIi0s1Ll3tAdXgBhbp9afqCPlMey2w+7iC5gP46byS9L8g0o/iC
FXwPjnvvOfOjaHnqfbW9XZHK4p8y/B2Pme0CQQDJvYR/5PgCIr7BwRKjwOvyl5q7
dCso1hLmV0qL6sAY75FDcyRlGRLEpNtNDVMJ6d8/OYzjgExt7XssBZInjkMpAkEA
kPmKbK8Pn4YicwzH/d1cQCv1OQNdLCfOkneVYcTnbQsu3JabAKC8RJolcF3U7CHS
ioDXgdm5P3/APtzHM5gifQJADFxJkvfqWwP8CmxLVmas5oTv4Pwk214/bznauhsl
kEq97LtImLy3uA5nx6UpsRR/EG1Xl+E5kEecMPgyB/d87A==
-----END RSA PRIVATE KEY-----
